target datalayout = "e-m:e-p270:32:32-p271:32:32-p272:64:64-i64:64-i128:128-f80:128-n8:16:32:64-S128"
target triple = "x86_64-pc-linux-gnu"

%"class.llvm::Error" = type { ptr }
%"class.llvm::ErrorSuccess" = type { %"class.llvm::Error" }
%"class.llvm::SmallVectorBase.32" = type { ptr, i64, i64 }
%class.anon.198 = type { ptr }

; Function Attrs: mustprogress nounwind uwtable
define linkonce_odr hidden void @_ZN4llvm5ErrorC2Ev(ptr noundef nonnull align 8 dereferenceable(8) %0) unnamed_addr #0 comdat align 2 {
  %2 = alloca ptr, align 8
  store ptr %0, ptr %2, align 8
  %3 = load ptr, ptr %2, align 8
  %4 = getelementptr inbounds nuw %"class.llvm::Error", ptr %3, i32 0, i32 0
  store ptr null, ptr %4, align 8
  call void @_ZN4llvm5Error6setPtrEPNS_13ErrorInfoBaseE(ptr noundef nonnull align 8 dereferenceable(8) %3, ptr noundef null)
  call void @_ZN4llvm5Error10setCheckedEb(ptr noundef nonnull align 8 dereferenceable(8) %3, i1 noundef zeroext false)
  ret void
}

; Function Attrs: mustprogress nounwind uwtable
define linkonce_odr hidden noundef ptr @_ZNK4llvm25SmallVectorTemplateCommonIcvE5beginEv(ptr noundef nonnull align 8 dereferenceable(24) %0) #0 comdat align 2 {
  %2 = alloca ptr, align 8
  store ptr %0, ptr %2, align 8
  %3 = load ptr, ptr %2, align 8
  %4 = getelementptr inbounds nuw %"class.llvm::SmallVectorBase.32", ptr %3, i32 0, i32 0
  %5 = load ptr, ptr %4, align 8
  ret ptr %5
}

; Function Attrs: mustprogress nounwind uwtable
define linkonce_odr hidden void @_ZN4llvm12ErrorSuccessC2Ev(ptr noundef nonnull align 8 dereferenceable(8) %0) unnamed_addr #0 comdat align 2 {
  %2 = alloca ptr, align 8
  store ptr %0, ptr %2, align 8
  %3 = load ptr, ptr %2, align 8
  call void @_ZN4llvm5ErrorC2Ev(ptr noundef nonnull align 8 dereferenceable(8) %3)
  ret void
}

; Function Attrs: mustprogress nounwind uwtable
define linkonce_odr hidden noundef ptr @_ZNK4llvm25SmallVectorTemplateCommonIcvE4dataEv(ptr noundef nonnull align 8 dereferenceable(24) %0) #0 comdat align 2 {
  %2 = alloca ptr, align 8
  store ptr %0, ptr %2, align 8
  %3 = load ptr, ptr %2, align 8
  %4 = call noundef ptr @_ZNK4llvm25SmallVectorTemplateCommonIcvE5beginEv(ptr noundef nonnull align 8 dereferenceable(24) %3)
  ret ptr %4
}

; Function Attrs: mustprogress nounwind uwtable
define linkonce_odr hidden void @_ZN4llvm5Error6setPtrEPNS_13ErrorInfoBaseE(ptr noundef nonnull align 8 dereferenceable(8) %0, ptr noundef %1) #0 comdat align 2 {
  %3 = alloca ptr, align 8
  %4 = alloca ptr, align 8
  store ptr %0, ptr %3, align 8
  store ptr %1, ptr %4, align 8
  %5 = load ptr, ptr %3, align 8
  %6 = load ptr, ptr %4, align 8
  %7 = getelementptr inbounds nuw %"class.llvm::Error", ptr %5, i32 0, i32 0
  store ptr %6, ptr %7, align 8
  ret void
}

; Function Attrs: mustprogress nounwind uwtable
define linkonce_odr hidden noundef ptr @_ZNK4llvm5Error6getPtrEv(ptr noundef nonnull align 8 dereferenceable(8) %0) #0 comdat align 2 {
  %2 = alloca ptr, align 8
  store ptr %0, ptr %2, align 8
  %3 = load ptr, ptr %2, align 8
  %4 = getelementptr inbounds nuw %"class.llvm::Error", ptr %3, i32 0, i32 0
  %5 = load ptr, ptr %4, align 8
  ret ptr %5
}

; Function Attrs: mustprogress nounwind uwtable
define linkonce_odr hidden void @_ZN4llvm5Error15assertIsCheckedEv(ptr noundef nonnull align 8 dereferenceable(8) %0) #0 comdat align 2 {
  %2 = alloca ptr, align 8
  store ptr %0, ptr %2, align 8
  ret void
}

; Function Attrs: mustprogress nounwind uwtable
define linkonce_odr hidden void @_ZN4llvm5Error7successEv(ptr dead_on_unwind noalias writable sret(%"class.llvm::ErrorSuccess") align 8 %0) #0 comdat align 2 {
  %2 = alloca ptr, align 8
  store ptr %0, ptr %2, align 8
  call void @llvm.memset.p0.i64(ptr align 8 %0, i8 0, i64 8, i1 false)
  call void @_ZN4llvm12ErrorSuccessC2Ev(ptr noundef nonnull align 8 dereferenceable(8) %0)
  ret void
}

; Function Attrs: mustprogress nounwind uwtable
define linkonce_odr hidden noundef nonnull align 8 dereferenceable(48) ptr @_ZN4llvm11raw_ostreamlsERKNS_15SmallVectorImplIcEE(ptr noundef nonnull align 8 dereferenceable(48) %0, ptr noundef nonnull align 8 dereferenceable(24) %1) #0 comdat align 2 {
  %3 = alloca ptr, align 8
  %4 = alloca ptr, align 8
  store ptr %0, ptr %3, align 8
  store ptr %1, ptr %4, align 8
  %5 = load ptr, ptr %3, align 8
  %6 = load ptr, ptr %4, align 8
  %7 = call noundef ptr @_ZNK4llvm25SmallVectorTemplateCommonIcvE4dataEv(ptr noundef nonnull align 8 dereferenceable(24) %6)
  %8 = load ptr, ptr %4, align 8
  %9 = call noundef i64 @_ZNK4llvm15SmallVectorBaseImE4sizeEv(ptr noundef nonnull align 8 dereferenceable(24) %8)
  %10 = call noundef nonnull align 8 dereferenceable(48) ptr @_ZN4llvm11raw_ostream5writeEPKcm(ptr noundef nonnull align 8 dereferenceable(48) %5, ptr noundef %7, i64 noundef %9)
  ret ptr %10
}

; Function Attrs: mustprogress nounwind uwtable
define linkonce_odr hidden void @_ZN4llvm5ErrorD2Ev(ptr noundef nonnull align 8 dereferenceable(8) %0) unnamed_addr #0 comdat align 2 {
  %2 = alloca ptr, align 8
  store ptr %0, ptr %2, align 8
  %3 = load ptr, ptr %2, align 8
  call void @_ZN4llvm5Error15assertIsCheckedEv(ptr noundef nonnull align 8 dereferenceable(8) %3)
  %4 = call noundef ptr @_ZNK4llvm5Error6getPtrEv(ptr noundef nonnull align 8 dereferenceable(8) %3)
  %5 = icmp eq ptr %4, null
  br i1 %5, label %10, label %6

6:                                                ; preds = %1
  %7 = load ptr, ptr %4, align 8
  %8 = getelementptr inbounds ptr, ptr %7, i64 1
  %9 = load ptr, ptr %8, align 8
  call void %9(ptr noundef nonnull align 8 dereferenceable(8) %4) #17
  br label %10

10:                                               ; preds = %6, %1
  ret void
}

; Function Attrs: mustprogress nounwind uwtable
define linkonce_odr hidden noundef nonnull align 8 dereferenceable(8) ptr @_ZN4llvm5ErroraSEOS0_(ptr noundef nonnull align 8 dereferenceable(8) %0, ptr noundef nonnull align 8 dereferenceable(8) %1) #0 comdat align 2 {
  %3 = alloca ptr, align 8
  %4 = alloca ptr, align 8
  store ptr %0, ptr %3, align 8
  store ptr %1, ptr %4, align 8
  %5 = load ptr, ptr %3, align 8
  call void @_ZN4llvm5Error15assertIsCheckedEv(ptr noundef nonnull align 8 dereferenceable(8) %5)
  %6 = load ptr, ptr %4, align 8
  %7 = call noundef ptr @_ZNK4llvm5Error6getPtrEv(ptr noundef nonnull align 8 dereferenceable(8) %6)
  call void @_ZN4llvm5Error6setPtrEPNS_13ErrorInfoBaseE(ptr noundef nonnull align 8 dereferenceable(8) %5, ptr noundef %7)
  call void @_ZN4llvm5Error10setCheckedEb(ptr noundef nonnull align 8 dereferenceable(8) %5, i1 noundef zeroext false)
  %8 = load ptr, ptr %4, align 8
  call void @_ZN4llvm5Error6setPtrEPNS_13ErrorInfoBaseE(ptr noundef nonnull align 8 dereferenceable(8) %8, ptr noundef null)
  %9 = load ptr, ptr %4, align 8
  call void @_ZN4llvm5Error10setCheckedEb(ptr noundef nonnull align 8 dereferenceable(8) %9, i1 noundef zeroext true)
  ret ptr %5
}

; Function Attrs: mustprogress nounwind uwtable
define linkonce_odr hidden void @_ZN4llvm5Error10setCheckedEb(ptr noundef nonnull align 8 dereferenceable(8) %0, i1 noundef zeroext %1) #0 comdat align 2 {
  %3 = alloca ptr, align 8
  %4 = alloca i8, align 1
  store ptr %0, ptr %3, align 8
  %5 = zext i1 %1 to i8
  store i8 %5, ptr %4, align 1
  ret void
}

; Function Attrs: mustprogress nounwind uwtable
define internal void @"_ZZN5clang17GlobalModuleIndex10writeIndexERNS_11FileManagerERKNS_18PCHContainerReaderEN4llvm9StringRefEENK3$_0clERNS6_11raw_ostreamE"(ptr dead_on_unwind noalias writable sret(%"class.llvm::ErrorSuccess") align 8 %0, ptr noundef nonnull align 8 dereferenceable(8) %1, ptr noundef nonnull align 8 dereferenceable(48) %2) #0 align 2 {
  %4 = alloca ptr, align 8
  %5 = alloca ptr, align 8
  %6 = alloca ptr, align 8
  store ptr %0, ptr %4, align 8
  store ptr %1, ptr %5, align 8
  store ptr %2, ptr %6, align 8
  %7 = load ptr, ptr %5, align 8
  %8 = load ptr, ptr %6, align 8
  %9 = getelementptr inbounds nuw %class.anon.198, ptr %7, i32 0, i32 0
  %10 = load ptr, ptr %9, align 8
  %11 = call noundef nonnull align 8 dereferenceable(48) ptr @_ZN4llvm11raw_ostreamlsERKNS_15SmallVectorImplIcEE(ptr noundef nonnull align 8 dereferenceable(48) %8, ptr noundef nonnull align 8 dereferenceable(24) %10)
  call void @_ZN4llvm5Error7successEv(ptr dead_on_unwind writable sret(%"class.llvm::ErrorSuccess") align 8 %0)
  ret void
}

; Function Attrs: mustprogress nounwind uwtable
define linkonce_odr hidden noundef ptr @_ZNKSt9_Any_data9_M_accessEv(ptr noundef nonnull align 8 dereferenceable(16) %0) #0 comdat align 2 {
  %2 = alloca ptr, align 8
  store ptr %0, ptr %2, align 8
  %3 = load ptr, ptr %2, align 8
  %4 = getelementptr inbounds [16 x i8], ptr %3, i64 0, i64 0
  ret ptr %4
}

; Function Attrs: mustprogress nounwind uwtable
define linkonce_odr hidden void @_ZN4llvm12ErrorSuccessD2Ev(ptr noundef nonnull align 8 dereferenceable(8) %0) unnamed_addr #0 comdat align 2 {
  %2 = alloca ptr, align 8
  store ptr %0, ptr %2, align 8
  %3 = load ptr, ptr %2, align 8
  call void @_ZN4llvm5ErrorD2Ev(ptr noundef nonnull align 8 dereferenceable(8) %3) #17
  ret void
}

; Function Attrs: mustprogress nounwind uwtable
define linkonce_odr hidden void @_ZN4llvm5ErrorC2EOS0_(ptr noundef nonnull align 8 dereferenceable(8) %0, ptr noundef nonnull align 8 dereferenceable(8) %1) unnamed_addr #0 comdat align 2 {
  %3 = alloca ptr, align 8
  %4 = alloca ptr, align 8
  store ptr %0, ptr %3, align 8
  store ptr %1, ptr %4, align 8
  %5 = load ptr, ptr %3, align 8
  %6 = getelementptr inbounds nuw %"class.llvm::Error", ptr %5, i32 0, i32 0
  store ptr null, ptr %6, align 8
  call void @_ZN4llvm5Error10setCheckedEb(ptr noundef nonnull align 8 dereferenceable(8) %5, i1 noundef zeroext true)
  %7 = load ptr, ptr %4, align 8
  %8 = call noundef nonnull align 8 dereferenceable(8) ptr @_ZN4llvm5ErroraSEOS0_(ptr noundef nonnull align 8 dereferenceable(8) %5, ptr noundef nonnull align 8 dereferenceable(8) %7)
  ret void
}

; Function Attrs: mustprogress nounwind uwtable
define internal void @"_ZSt13__invoke_implIN4llvm12ErrorSuccessERZN5clang17GlobalModuleIndex10writeIndexERNS2_11FileManagerERKNS2_18PCHContainerReaderENS0_9StringRefEE3$_0JRNS0_11raw_ostreamEEET_St14__invoke_otherOT0_DpOT1_"(ptr dead_on_unwind noalias writable sret(%"class.llvm::ErrorSuccess") align 8 %0, ptr noundef nonnull align 8 dereferenceable(8) %1, ptr noundef nonnull align 8 dereferenceable(48) %2) #0 {
  %4 = alloca ptr, align 8
  %5 = alloca ptr, align 8
  %6 = alloca ptr, align 8
  store ptr %0, ptr %4, align 8
  store ptr %1, ptr %5, align 8
  store ptr %2, ptr %6, align 8
  %7 = load ptr, ptr %5, align 8
  %8 = load ptr, ptr %6, align 8
  call void @"_ZZN5clang17GlobalModuleIndex10writeIndexERNS_11FileManagerERKNS_18PCHContainerReaderEN4llvm9StringRefEENK3$_0clERNS6_11raw_ostreamE"(ptr dead_on_unwind writable sret(%"class.llvm::ErrorSuccess") align 8 %0, ptr noundef nonnull align 8 dereferenceable(8) %7, ptr noundef nonnull align 8 dereferenceable(48) %8)
  ret void
}

; Function Attrs: mustprogress nounwind uwtable
define internal noundef nonnull align 8 dereferenceable(8) ptr @"_ZNKSt9_Any_data9_M_accessIZN5clang17GlobalModuleIndex10writeIndexERNS1_11FileManagerERKNS1_18PCHContainerReaderEN4llvm9StringRefEE3$_0EERKT_v"(ptr noundef nonnull align 8 dereferenceable(16) %0) #0 align 2 {
  %2 = alloca ptr, align 8
  store ptr %0, ptr %2, align 8
  %3 = load ptr, ptr %2, align 8
  %4 = call noundef ptr @_ZNKSt9_Any_data9_M_accessEv(ptr noundef nonnull align 8 dereferenceable(16) %3) #17
  ret ptr %4
}

; Function Attrs: mustprogress nounwind uwtable
define internal void @"_ZSt10__invoke_rIN4llvm5ErrorERZN5clang17GlobalModuleIndex10writeIndexERNS2_11FileManagerERKNS2_18PCHContainerReaderENS0_9StringRefEE3$_0JRNS0_11raw_ostreamEEENSt9enable_ifIX16is_invocable_r_vIT_T0_DpT1_EESF_E4typeEOSG_DpOSH_"(ptr dead_on_unwind noalias writable sret(%"class.llvm::Error") align 8 %0, ptr noundef nonnull align 8 dereferenceable(8) %1, ptr noundef nonnull align 8 dereferenceable(48) %2) #0 {
  %4 = alloca ptr, align 8
  %5 = alloca ptr, align 8
  %6 = alloca ptr, align 8
  %7 = alloca %"class.llvm::ErrorSuccess", align 8
  store ptr %0, ptr %4, align 8
  store ptr %1, ptr %5, align 8
  store ptr %2, ptr %6, align 8
  %8 = load ptr, ptr %5, align 8
  %9 = load ptr, ptr %6, align 8
  call void @"_ZSt13__invoke_implIN4llvm12ErrorSuccessERZN5clang17GlobalModuleIndex10writeIndexERNS2_11FileManagerERKNS2_18PCHContainerReaderENS0_9StringRefEE3$_0JRNS0_11raw_ostreamEEET_St14__invoke_otherOT0_DpOT1_"(ptr dead_on_unwind writable sret(%"class.llvm::ErrorSuccess") align 8 %7, ptr noundef nonnull align 8 dereferenceable(8) %8, ptr noundef nonnull align 8 dereferenceable(48) %9)
  call void @_ZN4llvm5ErrorC2EOS0_(ptr noundef nonnull align 8 dereferenceable(8) %0, ptr noundef nonnull align 8 dereferenceable(8) %7)
  call void @_ZN4llvm12ErrorSuccessD2Ev(ptr noundef nonnull align 8 dereferenceable(8) %7) #17
  ret void
}

; Function Attrs: mustprogress nounwind uwtable
define internal noundef ptr @"_ZNSt14_Function_base13_Base_managerIZN5clang17GlobalModuleIndex10writeIndexERNS1_11FileManagerERKNS1_18PCHContainerReaderEN4llvm9StringRefEE3$_0E14_M_get_pointerERKSt9_Any_data"(ptr noundef nonnull align 8 dereferenceable(16) %0) #0 align 2 {
  %2 = alloca ptr, align 8
  %3 = alloca ptr, align 8
  store ptr %0, ptr %2, align 8
  %4 = load ptr, ptr %2, align 8
  %5 = call noundef nonnull align 8 dereferenceable(8) ptr @"_ZNKSt9_Any_data9_M_accessIZN5clang17GlobalModuleIndex10writeIndexERNS1_11FileManagerERKNS1_18PCHContainerReaderEN4llvm9StringRefEE3$_0EERKT_v"(ptr noundef nonnull align 8 dereferenceable(16) %4) #17
  store ptr %5, ptr %3, align 8
  %6 = load ptr, ptr %3, align 8
  ret ptr %6
}

; Function Attrs: mustprogress nounwind uwtable
define internal void @"_ZNSt17_Function_handlerIFN4llvm5ErrorERNS0_11raw_ostreamEEZN5clang17GlobalModuleIndex10writeIndexERNS5_11FileManagerERKNS5_18PCHContainerReaderENS0_9StringRefEE3$_0E9_M_invokeERKSt9_Any_dataS3_"(ptr dead_on_unwind noalias writable sret(%"class.llvm::Error") align 8 %0, ptr noundef nonnull align 8 dereferenceable(16) %1, ptr noundef nonnull align 8 dereferenceable(48) %2) #0 align 2 {
  %4 = alloca ptr, align 8
  %5 = alloca ptr, align 8
  %6 = alloca ptr, align 8
  store ptr %0, ptr %4, align 8
  store ptr %1, ptr %5, align 8
  store ptr %2, ptr %6, align 8
  %7 = load ptr, ptr %5, align 8
  %8 = call noundef ptr @"_ZNSt14_Function_base13_Base_managerIZN5clang17GlobalModuleIndex10writeIndexERNS1_11FileManagerERKNS1_18PCHContainerReaderEN4llvm9StringRefEE3$_0E14_M_get_pointerERKSt9_Any_data"(ptr noundef nonnull align 8 dereferenceable(16) %7) #17
  %9 = load ptr, ptr %6, align 8
  call void @"_ZSt10__invoke_rIN4llvm5ErrorERZN5clang17GlobalModuleIndex10writeIndexERNS2_11FileManagerERKNS2_18PCHContainerReaderENS0_9StringRefEE3$_0JRNS0_11raw_ostreamEEENSt9enable_ifIX16is_invocable_r_vIT_T0_DpT1_EESF_E4typeEOSG_DpOSH_"(ptr dead_on_unwind writable sret(%"class.llvm::Error") align 8 %0, ptr noundef nonnull align 8 dereferenceable(8) %8, ptr noundef nonnull align 8 dereferenceable(48) %9)
  ret void
}