; Function Attrs: mustprogress nounwind uwtable
define internal void @"_ZNSt17_Function_handlerIFN4llvm5ErrorERNS0_11raw_ostreamEEZN5clang17GlobalModuleIndex10writeIndexERNS5_11FileManagerERKNS5_18PCHContainerReaderENS0_9StringRefEE3$_0E9_M_invokeERKSt9_Any_dataS3_"(ptr dead_on_unwind noalias nocapture writable writeonly sret(%"class.llvm::Error") align 8 %0, ptr nocapture noundef nonnull readonly align 8 dereferenceable(16) %1, ptr noundef nonnull align 8 dereferenceable(48) %2) #0 align 2 {
  %.val = load ptr, ptr %1, align 8
  tail call void @llvm.experimental.noalias.scope.decl(metadata !409)
  %4 = load ptr, ptr %.val, align 8, !noalias !412
  %5 = tail call noundef i64 @_ZNK4llvm15SmallVectorBaseImE4sizeEv(ptr noundef nonnull align 8 dereferenceable(24) %.val) #25, !noalias !412
  %6 = tail call noundef nonnull align 8 dereferenceable(48) ptr @_ZN4llvm11raw_ostream5writeEPKcm(ptr noundef nonnull align 8 dereferenceable(48) %2, ptr noundef %4, i64 noundef %5) #25, !noalias !412
  store ptr null, ptr %0, align 8, !alias.scope !409
  ret void
}